target datalayout = "e-m:e-p270:32:32-p271:32:32-p272:64:64-i64:64-i128:128-f80:128-n8:16:32:64-S128"
target triple = "x86_64-pc-linux-gnu"

; Function Attrs: mustprogress nounwind uwtable
define internal void @_ZN10OpenSubdiv6v3_6_03OsdL32Osd_adjustBSplineBoundaryWeightsEiPf(i32 noundef %0, ptr noundef %1) #5 {
  %3 = alloca i32, align 4
  %4 = alloca ptr, align 8
  %5 = alloca i32, align 4
  %6 = alloca i32, align 4
  %7 = alloca i32, align 4
  %8 = alloca i32, align 4
  store i32 %0, ptr %3, align 4
  store ptr %1, ptr %4, align 8
  %9 = load i32, ptr %3, align 4
  %10 = and i32 %9, 1
  %11 = icmp ne i32 %10, 0
  br i1 %11, label %12, label %52

12:                                               ; preds = %2
  store i32 0, ptr %5, align 4
  br label %13

13:                                               ; preds = %48, %12
  %14 = load i32, ptr %5, align 4
  %15 = icmp slt i32 %14, 4
  br i1 %15, label %16, label %51

16:                                               ; preds = %13
  %17 = load ptr, ptr %4, align 8
  %18 = load i32, ptr %5, align 4
  %19 = add nsw i32 %18, 0
  %20 = sext i32 %19 to i64
  %21 = getelementptr inbounds float, ptr %17, i64 %20
  %22 = load float, ptr %21, align 4
  %23 = load ptr, ptr %4, align 8
  %24 = load i32, ptr %5, align 4
  %25 = add nsw i32 %24, 8
  %26 = sext i32 %25 to i64
  %27 = getelementptr inbounds float, ptr %23, i64 %26
  %28 = load float, ptr %27, align 4
  %29 = fsub float %28, %22
  store float %29, ptr %27, align 4
  %30 = load ptr, ptr %4, align 8
  %31 = load i32, ptr %5, align 4
  %32 = add nsw i32 %31, 0
  %33 = sext i32 %32 to i64
  %34 = getelementptr inbounds float, ptr %30, i64 %33
  %35 = load float, ptr %34, align 4
  %36 = load ptr, ptr %4, align 8
  %37 = load i32, ptr %5, align 4
  %38 = add nsw i32 %37, 4
  %39 = sext i32 %38 to i64
  %40 = getelementptr inbounds float, ptr %36, i64 %39
  %41 = load float, ptr %40, align 4
  %42 = call float @llvm.fmuladd.f32(float %35, float 2.000000e+00, float %41)
  store float %42, ptr %40, align 4
  %43 = load ptr, ptr %4, align 8
  %44 = load i32, ptr %5, align 4
  %45 = add nsw i32 %44, 0
  %46 = sext i32 %45 to i64
  %47 = getelementptr inbounds float, ptr %43, i64 %46
  store float 0.000000e+00, ptr %47, align 4
  br label %48

48:                                               ; preds = %16
  %49 = load i32, ptr %5, align 4
  %50 = add nsw i32 %49, 1
  store i32 %50, ptr %5, align 4
  br label %13, !llvm.loop !24

51:                                               ; preds = %13
  br label %52

52:                                               ; preds = %51, %2
  %53 = load i32, ptr %3, align 4
  %54 = and i32 %53, 2
  %55 = icmp ne i32 %54, 0
  br i1 %55, label %56, label %96

56:                                               ; preds = %52
  store i32 0, ptr %6, align 4
  br label %57

57:                                               ; preds = %92, %56
  %58 = load i32, ptr %6, align 4
  %59 = icmp slt i32 %58, 16
  br i1 %59, label %60, label %95

60:                                               ; preds = %57
  %61 = load ptr, ptr %4, align 8
  %62 = load i32, ptr %6, align 4
  %63 = add nsw i32 %62, 3
  %64 = sext i32 %63 to i64
  %65 = getelementptr inbounds float, ptr %61, i64 %64
  %66 = load float, ptr %65, align 4
  %67 = load ptr, ptr %4, align 8
  %68 = load i32, ptr %6, align 4
  %69 = add nsw i32 %68, 1
  %70 = sext i32 %69 to i64
  %71 = getelementptr inbounds float, ptr %67, i64 %70
  %72 = load float, ptr %71, align 4
  %73 = fsub float %72, %66
  store float %73, ptr %71, align 4
  %74 = load ptr, ptr %4, align 8
  %75 = load i32, ptr %6, align 4
  %76 = add nsw i32 %75, 3
  %77 = sext i32 %76 to i64
  %78 = getelementptr inbounds float, ptr %74, i64 %77
  %79 = load float, ptr %78, align 4
  %80 = load ptr, ptr %4, align 8
  %81 = load i32, ptr %6, align 4
  %82 = add nsw i32 %81, 2
  %83 = sext i32 %82 to i64
  %84 = getelementptr inbounds float, ptr %80, i64 %83
  %85 = load float, ptr %84, align 4
  %86 = call float @llvm.fmuladd.f32(float %79, float 2.000000e+00, float %85)
  store float %86, ptr %84, align 4
  %87 = load ptr, ptr %4, align 8
  %88 = load i32, ptr %6, align 4
  %89 = add nsw i32 %88, 3
  %90 = sext i32 %89 to i64
  %91 = getelementptr inbounds float, ptr %87, i64 %90
  store float 0.000000e+00, ptr %91, align 4
  br label %92

92:                                               ; preds = %60
  %93 = load i32, ptr %6, align 4
  %94 = add nsw i32 %93, 4
  store i32 %94, ptr %6, align 4
  br label %57, !llvm.loop !25

95:                                               ; preds = %57
  br label %96

96:                                               ; preds = %95, %52
  %97 = load i32, ptr %3, align 4
  %98 = and i32 %97, 4
  %99 = icmp ne i32 %98, 0
  br i1 %99, label %100, label %140

100:                                              ; preds = %96
  store i32 0, ptr %7, align 4
  br label %101

101:                                              ; preds = %136, %100
  %102 = load i32, ptr %7, align 4
  %103 = icmp slt i32 %102, 4
  br i1 %103, label %104, label %139

104:                                              ; preds = %101
  %105 = load ptr, ptr %4, align 8
  %106 = load i32, ptr %7, align 4
  %107 = add nsw i32 %106, 12
  %108 = sext i32 %107 to i64
  %109 = getelementptr inbounds float, ptr %105, i64 %108
  %110 = load float, ptr %109, align 4
  %111 = load ptr, ptr %4, align 8
  %112 = load i32, ptr %7, align 4
  %113 = add nsw i32 %112, 4
  %114 = sext i32 %113 to i64
  %115 = getelementptr inbounds float, ptr %111, i64 %114
  %116 = load float, ptr %115, align 4
  %117 = fsub float %116, %110
  store float %117, ptr %115, align 4
  %118 = load ptr, ptr %4, align 8
  %119 = load i32, ptr %7, align 4
  %120 = add nsw i32 %119, 12
  %121 = sext i32 %120 to i64
  %122 = getelementptr inbounds float, ptr %118, i64 %121
  %123 = load float, ptr %122, align 4
  %124 = load ptr, ptr %4, align 8
  %125 = load i32, ptr %7, align 4
  %126 = add nsw i32 %125, 8
  %127 = sext i32 %126 to i64
  %128 = getelementptr inbounds float, ptr %124, i64 %127
  %129 = load float, ptr %128, align 4
  %130 = call float @llvm.fmuladd.f32(float %123, float 2.000000e+00, float %129)
  store float %130, ptr %128, align 4
  %131 = load ptr, ptr %4, align 8
  %132 = load i32, ptr %7, align 4
  %133 = add nsw i32 %132, 12
  %134 = sext i32 %133 to i64
  %135 = getelementptr inbounds float, ptr %131, i64 %134
  store float 0.000000e+00, ptr %135, align 4
  br label %136

136:                                              ; preds = %104
  %137 = load i32, ptr %7, align 4
  %138 = add nsw i32 %137, 1
  store i32 %138, ptr %7, align 4
  br label %101, !llvm.loop !26

139:                                              ; preds = %101
  br label %140

140:                                              ; preds = %139, %96
  %141 = load i32, ptr %3, align 4
  %142 = and i32 %141, 8
  %143 = icmp ne i32 %142, 0
  br i1 %143, label %144, label %184

144:                                              ; preds = %140
  store i32 0, ptr %8, align 4
  br label %145

145:                                              ; preds = %180, %144
  %146 = load i32, ptr %8, align 4
  %147 = icmp slt i32 %146, 16
  br i1 %147, label %148, label %183

148:                                              ; preds = %145
  %149 = load ptr, ptr %4, align 8
  %150 = load i32, ptr %8, align 4
  %151 = add nsw i32 %150, 0
  %152 = sext i32 %151 to i64
  %153 = getelementptr inbounds float, ptr %149, i64 %152
  %154 = load float, ptr %153, align 4
  %155 = load ptr, ptr %4, align 8
  %156 = load i32, ptr %8, align 4
  %157 = add nsw i32 %156, 2
  %158 = sext i32 %157 to i64
  %159 = getelementptr inbounds float, ptr %155, i64 %158
  %160 = load float, ptr %159, align 4
  %161 = fsub float %160, %154
  store float %161, ptr %159, align 4
  %162 = load ptr, ptr %4, align 8
  %163 = load i32, ptr %8, align 4
  %164 = add nsw i32 %163, 0
  %165 = sext i32 %164 to i64
  %166 = getelementptr inbounds float, ptr %162, i64 %165
  %167 = load float, ptr %166, align 4
  %168 = load ptr, ptr %4, align 8
  %169 = load i32, ptr %8, align 4
  %170 = add nsw i32 %169, 1
  %171 = sext i32 %170 to i64
  %172 = getelementptr inbounds float, ptr %168, i64 %171
  %173 = load float, ptr %172, align 4
  %174 = call float @llvm.fmuladd.f32(float %167, float 2.000000e+00, float %173)
  store float %174, ptr %172, align 4
  %175 = load ptr, ptr %4, align 8
  %176 = load i32, ptr %8, align 4
  %177 = add nsw i32 %176, 0
  %178 = sext i32 %177 to i64
  %179 = getelementptr inbounds float, ptr %175, i64 %178
  store float 0.000000e+00, ptr %179, align 4
  br label %180

180:                                              ; preds = %148
  %181 = load i32, ptr %8, align 4
  %182 = add nsw i32 %181, 4
  store i32 %182, ptr %8, align 4
  br label %145, !llvm.loop !27

183:                                              ; preds = %145
  br label %184

184:                                              ; preds = %183, %140
  ret void
}